target datalayout = "e-m:e-p270:32:32-p271:32:32-p272:64:64-i64:64-i128:128-f80:128-n8:16:32:64-S128"
target triple = "x86_64-pc-linux-gnu"

%struct.opj_jp2 = type { ptr, ptr, ptr, i32, i32, i32, i32, i32, i32, i32, i32, i32, i32, i32, i32, i32, i32, ptr, ptr, i64, i64, i32, i32, i32, %struct.opj_jp2_color, i32, i8, i8 }
%struct.opj_jp2_color = type { ptr, i32, ptr, ptr, i8 }

; Function Attrs: nounwind uwtable
define internal ptr @opj_jp2_write_ihdr(ptr noundef %0, ptr noundef %1) #0 {
  %3 = alloca ptr, align 8
  %4 = alloca ptr, align 8
  %5 = alloca ptr, align 8
  %6 = alloca ptr, align 8
  %7 = alloca ptr, align 8
  %8 = alloca i32, align 4
  store ptr %0, ptr %4, align 8, !tbaa !3
  store ptr %1, ptr %5, align 8, !tbaa !105
  call void @llvm.lifetime.start.p0(i64 8, ptr %6) #5
  call void @llvm.lifetime.start.p0(i64 8, ptr %7) #5
  %9 = call ptr @opj_calloc(i64 noundef 1, i64 noundef 22)
  store ptr %9, ptr %6, align 8, !tbaa !106
  %10 = load ptr, ptr %6, align 8, !tbaa !106
  %11 = icmp eq ptr %10, null
  br i1 %11, label %12, label %13

12:                                               ; preds = %2
  store ptr null, ptr %3, align 8
  store i32 1, ptr %8, align 4
  br label %65

13:                                               ; preds = %2
  %14 = load ptr, ptr %6, align 8, !tbaa !106
  store ptr %14, ptr %7, align 8, !tbaa !106
  %15 = load ptr, ptr %7, align 8, !tbaa !106
  call void @opj_write_bytes_LE(ptr noundef %15, i32 noundef 22, i32 noundef 4)
  %16 = load ptr, ptr %7, align 8, !tbaa !106
  %17 = getelementptr inbounds i8, ptr %16, i64 4
  store ptr %17, ptr %7, align 8, !tbaa !106
  %18 = load ptr, ptr %7, align 8, !tbaa !106
  call void @opj_write_bytes_LE(ptr noundef %18, i32 noundef 1768449138, i32 noundef 4)
  %19 = load ptr, ptr %7, align 8, !tbaa !106
  %20 = getelementptr inbounds i8, ptr %19, i64 4
  store ptr %20, ptr %7, align 8, !tbaa !106
  %21 = load ptr, ptr %7, align 8, !tbaa !106
  %22 = load ptr, ptr %4, align 8, !tbaa !3
  %23 = getelementptr inbounds nuw %struct.opj_jp2, ptr %22, i32 0, i32 4
  %24 = load i32, ptr %23, align 4, !tbaa !53
  call void @opj_write_bytes_LE(ptr noundef %21, i32 noundef %24, i32 noundef 4)
  %25 = load ptr, ptr %7, align 8, !tbaa !106
  %26 = getelementptr inbounds i8, ptr %25, i64 4
  store ptr %26, ptr %7, align 8, !tbaa !106
  %27 = load ptr, ptr %7, align 8, !tbaa !106
  %28 = load ptr, ptr %4, align 8, !tbaa !3
  %29 = getelementptr inbounds nuw %struct.opj_jp2, ptr %28, i32 0, i32 3
  %30 = load i32, ptr %29, align 8, !tbaa !56
  call void @opj_write_bytes_LE(ptr noundef %27, i32 noundef %30, i32 noundef 4)
  %31 = load ptr, ptr %7, align 8, !tbaa !106
  %32 = getelementptr inbounds i8, ptr %31, i64 4
  store ptr %32, ptr %7, align 8, !tbaa !106
  %33 = load ptr, ptr %7, align 8, !tbaa !106
  %34 = load ptr, ptr %4, align 8, !tbaa !3
  %35 = getelementptr inbounds nuw %struct.opj_jp2, ptr %34, i32 0, i32 5
  %36 = load i32, ptr %35, align 8, !tbaa !49
  call void @opj_write_bytes_LE(ptr noundef %33, i32 noundef %36, i32 noundef 2)
  %37 = load ptr, ptr %7, align 8, !tbaa !106
  %38 = getelementptr inbounds i8, ptr %37, i64 2
  store ptr %38, ptr %7, align 8, !tbaa !106
  %39 = load ptr, ptr %7, align 8, !tbaa !106
  %40 = load ptr, ptr %4, align 8, !tbaa !3
  %41 = getelementptr inbounds nuw %struct.opj_jp2, ptr %40, i32 0, i32 6
  %42 = load i32, ptr %41, align 4, !tbaa !61
  call void @opj_write_bytes_LE(ptr noundef %39, i32 noundef %42, i32 noundef 1)
  %43 = load ptr, ptr %7, align 8, !tbaa !106
  %44 = getelementptr inbounds nuw i8, ptr %43, i32 1
  store ptr %44, ptr %7, align 8, !tbaa !106
  %45 = load ptr, ptr %7, align 8, !tbaa !106
  %46 = load ptr, ptr %4, align 8, !tbaa !3
  %47 = getelementptr inbounds nuw %struct.opj_jp2, ptr %46, i32 0, i32 7
  %48 = load i32, ptr %47, align 8, !tbaa !64
  call void @opj_write_bytes_LE(ptr noundef %45, i32 noundef %48, i32 noundef 1)
  %49 = load ptr, ptr %7, align 8, !tbaa !106
  %50 = getelementptr inbounds nuw i8, ptr %49, i32 1
  store ptr %50, ptr %7, align 8, !tbaa !106
  %51 = load ptr, ptr %7, align 8, !tbaa !106
  %52 = load ptr, ptr %4, align 8, !tbaa !3
  %53 = getelementptr inbounds nuw %struct.opj_jp2, ptr %52, i32 0, i32 8
  %54 = load i32, ptr %53, align 4, !tbaa !65
  call void @opj_write_bytes_LE(ptr noundef %51, i32 noundef %54, i32 noundef 1)
  %55 = load ptr, ptr %7, align 8, !tbaa !106
  %56 = getelementptr inbounds nuw i8, ptr %55, i32 1
  store ptr %56, ptr %7, align 8, !tbaa !106
  %57 = load ptr, ptr %7, align 8, !tbaa !106
  %58 = load ptr, ptr %4, align 8, !tbaa !3
  %59 = getelementptr inbounds nuw %struct.opj_jp2, ptr %58, i32 0, i32 9
  %60 = load i32, ptr %59, align 8, !tbaa !66
  call void @opj_write_bytes_LE(ptr noundef %57, i32 noundef %60, i32 noundef 1)
  %61 = load ptr, ptr %7, align 8, !tbaa !106
  %62 = getelementptr inbounds nuw i8, ptr %61, i32 1
  store ptr %62, ptr %7, align 8, !tbaa !106
  %63 = load ptr, ptr %5, align 8, !tbaa !105
  store i32 22, ptr %63, align 4, !tbaa !39
  %64 = load ptr, ptr %6, align 8, !tbaa !106
  store ptr %64, ptr %3, align 8
  store i32 1, ptr %8, align 4
  br label %65

65:                                               ; preds = %13, %12
  call void @llvm.lifetime.end.p0(i64 8, ptr %7) #5
  call void @llvm.lifetime.end.p0(i64 8, ptr %6) #5
  %66 = load ptr, ptr %3, align 8
  ret ptr %66
}