; Function Attrs: nounwind uwtable
define internal ptr @opj_jp2_write_ihdr(ptr noundef readonly captures(none) %0, ptr noundef writeonly captures(none) %1) #0 {
  %3 = tail call ptr @opj_calloc(i64 noundef 1, i64 noundef 22) #6
  %4 = icmp eq ptr %3, null
  br i1 %4, label %28, label %5

5:                                                ; preds = %2
  tail call void @opj_write_bytes_LE(ptr noundef nonnull %3, i32 noundef 22, i32 noundef 4) #6
  %6 = getelementptr inbounds nuw i8, ptr %3, i64 4
  tail call void @opj_write_bytes_LE(ptr noundef nonnull %6, i32 noundef 1768449138, i32 noundef 4) #6
  %7 = getelementptr inbounds nuw i8, ptr %3, i64 8
  %8 = getelementptr inbounds nuw i8, ptr %0, i64 28
  %9 = load i32, ptr %8, align 4, !tbaa !86
  tail call void @opj_write_bytes_LE(ptr noundef nonnull %7, i32 noundef %9, i32 noundef 4) #6
  %10 = getelementptr inbounds nuw i8, ptr %3, i64 12
  %11 = getelementptr inbounds nuw i8, ptr %0, i64 24
  %12 = load i32, ptr %11, align 8, !tbaa !89
  tail call void @opj_write_bytes_LE(ptr noundef nonnull %10, i32 noundef %12, i32 noundef 4) #6
  %13 = getelementptr inbounds nuw i8, ptr %3, i64 16
  %14 = getelementptr inbounds nuw i8, ptr %0, i64 32
  %15 = load i32, ptr %14, align 8, !tbaa !82
  tail call void @opj_write_bytes_LE(ptr noundef nonnull %13, i32 noundef %15, i32 noundef 2) #6
  %16 = getelementptr inbounds nuw i8, ptr %3, i64 18
  %17 = getelementptr inbounds nuw i8, ptr %0, i64 36
  %18 = load i32, ptr %17, align 4, !tbaa !90
  tail call void @opj_write_bytes_LE(ptr noundef nonnull %16, i32 noundef %18, i32 noundef 1) #6
  %19 = getelementptr inbounds nuw i8, ptr %3, i64 19
  %20 = getelementptr inbounds nuw i8, ptr %0, i64 40
  %21 = load i32, ptr %20, align 8, !tbaa !92
  tail call void @opj_write_bytes_LE(ptr noundef nonnull %19, i32 noundef %21, i32 noundef 1) #6
  %22 = getelementptr inbounds nuw i8, ptr %3, i64 20
  %23 = getelementptr inbounds nuw i8, ptr %0, i64 44
  %24 = load i32, ptr %23, align 4, !tbaa !93
  tail call void @opj_write_bytes_LE(ptr noundef nonnull %22, i32 noundef %24, i32 noundef 1) #6
  %25 = getelementptr inbounds nuw i8, ptr %3, i64 21
  %26 = getelementptr inbounds nuw i8, ptr %0, i64 48
  %27 = load i32, ptr %26, align 8, !tbaa !94
  tail call void @opj_write_bytes_LE(ptr noundef nonnull %25, i32 noundef %27, i32 noundef 1) #6
  store i32 22, ptr %1, align 4, !tbaa !46
  br label %28

28:                                               ; preds = %2, %5
  ret ptr %3
}